target datalayout = "e-m:e-p270:32:32-p271:32:32-p272:64:64-i64:64-i128:128-f80:128-n8:16:32:64-S128"
target triple = "x86_64-pc-linux-gnu"

%struct.AVFilterContext = type { ptr, ptr, ptr, ptr, ptr, i32, ptr, ptr, i32, ptr, ptr, i32, i32, ptr, ptr, ptr, ptr, i32, ptr, i32, i32 }
%struct.AudioFWTDNContext = type { ptr, double, double, double, i64, i64, i32, i32, i32, i32, i32, i32, i32, i32, i32, i32, i32, i32, i32, i32, ptr, ptr, ptr, ptr, ptr, ptr, ptr, ptr, ptr, ptr, ptr }
%struct.ChannelParams = type { ptr, ptr, ptr, ptr, ptr, i32, i32, i32, i32, i32, i32, i32, ptr, ptr, ptr, ptr, ptr, ptr, ptr }

; Function Attrs: cold nounwind optsize uwtable
define internal void @uninit(ptr noundef %0) #0 {
  %2 = alloca ptr, align 8
  %3 = alloca ptr, align 8
  %4 = alloca i32, align 4
  %5 = alloca i32, align 4
  %6 = alloca ptr, align 8
  %7 = alloca i32, align 4
  %8 = alloca i32, align 4
  store ptr %0, ptr %2, align 8, !tbaa !4
  call void @llvm.lifetime.start.p0(i64 8, ptr %3) #12
  %9 = load ptr, ptr %2, align 8, !tbaa !4
  %10 = getelementptr inbounds nuw %struct.AVFilterContext, ptr %9, i32 0, i32 9
  %11 = load ptr, ptr %10, align 8, !tbaa !9
  store ptr %11, ptr %3, align 8, !tbaa !22
  %12 = load ptr, ptr %3, align 8, !tbaa !22
  %13 = getelementptr inbounds nuw %struct.AudioFWTDNContext, ptr %12, i32 0, i32 27
  call void @av_frame_free(ptr noundef %13)
  %14 = load ptr, ptr %3, align 8, !tbaa !22
  %15 = getelementptr inbounds nuw %struct.AudioFWTDNContext, ptr %14, i32 0, i32 28
  call void @av_frame_free(ptr noundef %15)
  %16 = load ptr, ptr %3, align 8, !tbaa !22
  %17 = getelementptr inbounds nuw %struct.AudioFWTDNContext, ptr %16, i32 0, i32 25
  call void @av_frame_free(ptr noundef %17)
  %18 = load ptr, ptr %3, align 8, !tbaa !22
  %19 = getelementptr inbounds nuw %struct.AudioFWTDNContext, ptr %18, i32 0, i32 29
  call void @av_frame_free(ptr noundef %19)
  %20 = load ptr, ptr %3, align 8, !tbaa !22
  %21 = getelementptr inbounds nuw %struct.AudioFWTDNContext, ptr %20, i32 0, i32 26
  call void @av_frame_free(ptr noundef %21)
  call void @llvm.lifetime.start.p0(i64 4, ptr %4) #12
  store i32 0, ptr %4, align 4, !tbaa !24
  br label %22

22:                                               ; preds = %115, %1
  %23 = load ptr, ptr %3, align 8, !tbaa !22
  %24 = getelementptr inbounds nuw %struct.AudioFWTDNContext, ptr %23, i32 0, i32 20
  %25 = load ptr, ptr %24, align 8, !tbaa !25
  %26 = icmp ne ptr %25, null
  br i1 %26, label %27, label %33

27:                                               ; preds = %22
  %28 = load i32, ptr %4, align 4, !tbaa !24
  %29 = load ptr, ptr %3, align 8, !tbaa !22
  %30 = getelementptr inbounds nuw %struct.AudioFWTDNContext, ptr %29, i32 0, i32 8
  %31 = load i32, ptr %30, align 8, !tbaa !31
  %32 = icmp slt i32 %28, %31
  br label %33

33:                                               ; preds = %27, %22
  %34 = phi i1 [ false, %22 ], [ %32, %27 ]
  br i1 %34, label %36, label %35

35:                                               ; preds = %33
  store i32 2, ptr %5, align 4
  call void @llvm.lifetime.end.p0(i64 4, ptr %4) #12
  br label %118

36:                                               ; preds = %33
  call void @llvm.lifetime.start.p0(i64 8, ptr %6) #12
  %37 = load ptr, ptr %3, align 8, !tbaa !22
  %38 = getelementptr inbounds nuw %struct.AudioFWTDNContext, ptr %37, i32 0, i32 20
  %39 = load ptr, ptr %38, align 8, !tbaa !25
  %40 = load i32, ptr %4, align 4, !tbaa !24
  %41 = sext i32 %40 to i64
  %42 = getelementptr inbounds %struct.ChannelParams, ptr %39, i64 %41
  store ptr %42, ptr %6, align 8, !tbaa !32
  %43 = load ptr, ptr %6, align 8, !tbaa !32
  %44 = getelementptr inbounds nuw %struct.ChannelParams, ptr %43, i32 0, i32 12
  call void @av_freep(ptr noundef %44)
  %45 = load ptr, ptr %6, align 8, !tbaa !32
  %46 = getelementptr inbounds nuw %struct.ChannelParams, ptr %45, i32 0, i32 13
  call void @av_freep(ptr noundef %46)
  %47 = load ptr, ptr %6, align 8, !tbaa !32
  %48 = getelementptr inbounds nuw %struct.ChannelParams, ptr %47, i32 0, i32 14
  call void @av_freep(ptr noundef %48)
  %49 = load ptr, ptr %6, align 8, !tbaa !32
  %50 = getelementptr inbounds nuw %struct.ChannelParams, ptr %49, i32 0, i32 15
  call void @av_freep(ptr noundef %50)
  %51 = load ptr, ptr %6, align 8, !tbaa !32
  %52 = getelementptr inbounds nuw %struct.ChannelParams, ptr %51, i32 0, i32 16
  call void @av_freep(ptr noundef %52)
  %53 = load ptr, ptr %6, align 8, !tbaa !32
  %54 = getelementptr inbounds nuw %struct.ChannelParams, ptr %53, i32 0, i32 17
  call void @av_freep(ptr noundef %54)
  %55 = load ptr, ptr %6, align 8, !tbaa !32
  %56 = getelementptr inbounds nuw %struct.ChannelParams, ptr %55, i32 0, i32 18
  call void @av_freep(ptr noundef %56)
  %57 = load ptr, ptr %6, align 8, !tbaa !32
  %58 = getelementptr inbounds nuw %struct.ChannelParams, ptr %57, i32 0, i32 0
  call void @av_freep(ptr noundef %58)
  %59 = load ptr, ptr %6, align 8, !tbaa !32
  %60 = getelementptr inbounds nuw %struct.ChannelParams, ptr %59, i32 0, i32 1
  call void @av_freep(ptr noundef %60)
  %61 = load ptr, ptr %6, align 8, !tbaa !32
  %62 = getelementptr inbounds nuw %struct.ChannelParams, ptr %61, i32 0, i32 2
  %63 = load ptr, ptr %62, align 8, !tbaa !33
  %64 = icmp ne ptr %63, null
  br i1 %64, label %65, label %84

65:                                               ; preds = %36
  call void @llvm.lifetime.start.p0(i64 4, ptr %7) #12
  store i32 0, ptr %7, align 4, !tbaa !24
  br label %66

66:                                               ; preds = %80, %65
  %67 = load i32, ptr %7, align 4, !tbaa !24
  %68 = load ptr, ptr %3, align 8, !tbaa !22
  %69 = getelementptr inbounds nuw %struct.AudioFWTDNContext, ptr %68, i32 0, i32 10
  %70 = load i32, ptr %69, align 8, !tbaa !37
  %71 = icmp sle i32 %67, %70
  br i1 %71, label %73, label %72

72:                                               ; preds = %66
  store i32 5, ptr %5, align 4
  call void @llvm.lifetime.end.p0(i64 4, ptr %7) #12
  br label %83

73:                                               ; preds = %66
  %74 = load ptr, ptr %6, align 8, !tbaa !32
  %75 = getelementptr inbounds nuw %struct.ChannelParams, ptr %74, i32 0, i32 2
  %76 = load ptr, ptr %75, align 8, !tbaa !33
  %77 = load i32, ptr %7, align 4, !tbaa !24
  %78 = sext i32 %77 to i64
  %79 = getelementptr inbounds ptr, ptr %76, i64 %78
  call void @av_freep(ptr noundef %79)
  br label %80

80:                                               ; preds = %73
  %81 = load i32, ptr %7, align 4, !tbaa !24
  %82 = add nsw i32 %81, 1
  store i32 %82, ptr %7, align 4, !tbaa !24
  br label %66, !llvm.loop !38

83:                                               ; preds = %72
  br label %84

84:                                               ; preds = %83, %36
  %85 = load ptr, ptr %6, align 8, !tbaa !32
  %86 = getelementptr inbounds nuw %struct.ChannelParams, ptr %85, i32 0, i32 3
  %87 = load ptr, ptr %86, align 8, !tbaa !40
  %88 = icmp ne ptr %87, null
  br i1 %88, label %89, label %108

89:                                               ; preds = %84
  call void @llvm.lifetime.start.p0(i64 4, ptr %8) #12
  store i32 0, ptr %8, align 4, !tbaa !24
  br label %90

90:                                               ; preds = %104, %89
  %91 = load i32, ptr %8, align 4, !tbaa !24
  %92 = load ptr, ptr %3, align 8, !tbaa !22
  %93 = getelementptr inbounds nuw %struct.AudioFWTDNContext, ptr %92, i32 0, i32 10
  %94 = load i32, ptr %93, align 8, !tbaa !37
  %95 = icmp sle i32 %91, %94
  br i1 %95, label %97, label %96

96:                                               ; preds = %90
  store i32 8, ptr %5, align 4
  call void @llvm.lifetime.end.p0(i64 4, ptr %8) #12
  br label %107

97:                                               ; preds = %90
  %98 = load ptr, ptr %6, align 8, !tbaa !32
  %99 = getelementptr inbounds nuw %struct.ChannelParams, ptr %98, i32 0, i32 3
  %100 = load ptr, ptr %99, align 8, !tbaa !40
  %101 = load i32, ptr %8, align 4, !tbaa !24
  %102 = sext i32 %101 to i64
  %103 = getelementptr inbounds ptr, ptr %100, i64 %102
  call void @av_freep(ptr noundef %103)
  br label %104

104:                                              ; preds = %97
  %105 = load i32, ptr %8, align 4, !tbaa !24
  %106 = add nsw i32 %105, 1
  store i32 %106, ptr %8, align 4, !tbaa !24
  br label %90, !llvm.loop !41

107:                                              ; preds = %96
  br label %108

108:                                              ; preds = %107, %84
  %109 = load ptr, ptr %6, align 8, !tbaa !32
  %110 = getelementptr inbounds nuw %struct.ChannelParams, ptr %109, i32 0, i32 3
  call void @av_freep(ptr noundef %110)
  %111 = load ptr, ptr %6, align 8, !tbaa !32
  %112 = getelementptr inbounds nuw %struct.ChannelParams, ptr %111, i32 0, i32 2
  call void @av_freep(ptr noundef %112)
  %113 = load ptr, ptr %6, align 8, !tbaa !32
  %114 = getelementptr inbounds nuw %struct.ChannelParams, ptr %113, i32 0, i32 4
  call void @av_freep(ptr noundef %114)
  call void @llvm.lifetime.end.p0(i64 8, ptr %6) #12
  br label %115

115:                                              ; preds = %108
  %116 = load i32, ptr %4, align 4, !tbaa !24
  %117 = add nsw i32 %116, 1
  store i32 %117, ptr %4, align 4, !tbaa !24
  br label %22, !llvm.loop !42

118:                                              ; preds = %35
  %119 = load ptr, ptr %3, align 8, !tbaa !22
  %120 = getelementptr inbounds nuw %struct.AudioFWTDNContext, ptr %119, i32 0, i32 20
  call void @av_freep(ptr noundef %120)
  call void @llvm.lifetime.end.p0(i64 8, ptr %3) #12
  ret void
}