; Function Attrs: cold nounwind optsize uwtable
define internal void @uninit(ptr noundef readonly captures(none) %0) #0 {
  %2 = getelementptr inbounds nuw i8, ptr %0, i64 72
  %3 = load ptr, ptr %2, align 8, !tbaa !4
  %4 = getelementptr inbounds nuw i8, ptr %3, i64 160
  tail call void @av_frame_free(ptr noundef nonnull %4) #12
  %5 = getelementptr inbounds nuw i8, ptr %3, i64 168
  tail call void @av_frame_free(ptr noundef nonnull %5) #12
  %6 = getelementptr inbounds nuw i8, ptr %3, i64 144
  tail call void @av_frame_free(ptr noundef nonnull %6) #12
  %7 = getelementptr inbounds nuw i8, ptr %3, i64 176
  tail call void @av_frame_free(ptr noundef nonnull %7) #12
  %8 = getelementptr inbounds nuw i8, ptr %3, i64 152
  tail call void @av_frame_free(ptr noundef nonnull %8) #12
  %9 = getelementptr inbounds nuw i8, ptr %3, i64 56
  %10 = getelementptr inbounds nuw i8, ptr %3, i64 104
  %11 = load ptr, ptr %10, align 8, !tbaa !20
  %.not50 = icmp eq ptr %11, null
  br i1 %.not50, label %.critedge, label %.lr.ph52

.lr.ph52:                                         ; preds = %1
  %12 = getelementptr inbounds nuw i8, ptr %3, i64 64
  br label %13

13:                                               ; preds = %.lr.ph52, %.loopexit
  %indvars.iv58 = phi i64 [ 0, %.lr.ph52 ], [ %indvars.iv.next59, %.loopexit ]
  %14 = phi ptr [ %11, %.lr.ph52 ], [ %43, %.loopexit ]
  %15 = load i32, ptr %9, align 8, !tbaa !26
  %16 = sext i32 %15 to i64
  %17 = icmp slt i64 %indvars.iv58, %16
  br i1 %17, label %18, label %.critedge

.critedge:                                        ; preds = %13, %.loopexit, %1
  tail call void @av_freep(ptr noundef nonnull %10) #12
  ret void

18:                                               ; preds = %13
  %19 = getelementptr inbounds nuw %struct.ChannelParams, ptr %14, i64 %indvars.iv58
  %20 = getelementptr inbounds nuw i8, ptr %19, i64 72
  tail call void @av_freep(ptr noundef nonnull %20) #12
  %21 = getelementptr inbounds nuw i8, ptr %19, i64 80
  tail call void @av_freep(ptr noundef nonnull %21) #12
  %22 = getelementptr inbounds nuw i8, ptr %19, i64 88
  tail call void @av_freep(ptr noundef nonnull %22) #12
  %23 = getelementptr inbounds nuw i8, ptr %19, i64 96
  tail call void @av_freep(ptr noundef nonnull %23) #12
  %24 = getelementptr inbounds nuw i8, ptr %19, i64 104
  tail call void @av_freep(ptr noundef nonnull %24) #12
  %25 = getelementptr inbounds nuw i8, ptr %19, i64 112
  tail call void @av_freep(ptr noundef nonnull %25) #12
  %26 = getelementptr inbounds nuw i8, ptr %19, i64 120
  tail call void @av_freep(ptr noundef nonnull %26) #12
  tail call void @av_freep(ptr noundef nonnull %19) #12
  %27 = getelementptr inbounds nuw i8, ptr %19, i64 8
  tail call void @av_freep(ptr noundef nonnull %27) #12
  %28 = getelementptr inbounds nuw i8, ptr %19, i64 16
  %29 = load ptr, ptr %28, align 8, !tbaa !27
  %.not39 = icmp eq ptr %29, null
  br i1 %.not39, label %.loopexit44, label %.preheader43

.preheader43:                                     ; preds = %18
  %30 = load i32, ptr %12, align 8, !tbaa !31
  %.not4045 = icmp slt i32 %30, 0
  br i1 %.not4045, label %.loopexit44, label %.lr.ph

.lr.ph:                                           ; preds = %.preheader43, %.lr.ph
  %indvars.iv = phi i64 [ %indvars.iv.next, %.lr.ph ], [ 0, %.preheader43 ]
  %31 = load ptr, ptr %28, align 8, !tbaa !27
  %32 = getelementptr inbounds nuw ptr, ptr %31, i64 %indvars.iv
  tail call void @av_freep(ptr noundef %32) #12
  %indvars.iv.next = add nuw nsw i64 %indvars.iv, 1
  %33 = load i32, ptr %12, align 8, !tbaa !31
  %34 = sext i32 %33 to i64
  %.not40.not = icmp slt i64 %indvars.iv, %34
  br i1 %.not40.not, label %.lr.ph, label %.loopexit44, !llvm.loop !32

.loopexit44:                                      ; preds = %.lr.ph, %.preheader43, %18
  %35 = getelementptr inbounds nuw i8, ptr %19, i64 24
  %36 = load ptr, ptr %35, align 8, !tbaa !34
  %.not41 = icmp eq ptr %36, null
  br i1 %.not41, label %.loopexit, label %.preheader

.preheader:                                       ; preds = %.loopexit44
  %37 = load i32, ptr %12, align 8, !tbaa !31
  %.not4247 = icmp slt i32 %37, 0
  br i1 %.not4247, label %.loopexit, label %.lr.ph49

.lr.ph49:                                         ; preds = %.preheader, %.lr.ph49
  %indvars.iv55 = phi i64 [ %indvars.iv.next56, %.lr.ph49 ], [ 0, %.preheader ]
  %38 = load ptr, ptr %35, align 8, !tbaa !34
  %39 = getelementptr inbounds nuw ptr, ptr %38, i64 %indvars.iv55
  tail call void @av_freep(ptr noundef %39) #12
  %indvars.iv.next56 = add nuw nsw i64 %indvars.iv55, 1
  %40 = load i32, ptr %12, align 8, !tbaa !31
  %41 = sext i32 %40 to i64
  %.not42.not = icmp slt i64 %indvars.iv55, %41
  br i1 %.not42.not, label %.lr.ph49, label %.loopexit, !llvm.loop !35

.loopexit:                                        ; preds = %.lr.ph49, %.preheader, %.loopexit44
  tail call void @av_freep(ptr noundef nonnull %35) #12
  tail call void @av_freep(ptr noundef nonnull %28) #12
  %42 = getelementptr inbounds nuw i8, ptr %19, i64 32
  tail call void @av_freep(ptr noundef nonnull %42) #12
  %indvars.iv.next59 = add nuw nsw i64 %indvars.iv58, 1
  %43 = load ptr, ptr %10, align 8, !tbaa !20
  %.not = icmp eq ptr %43, null
  br i1 %.not, label %.critedge, label %13, !llvm.loop !36
}